target datalayout = "e-m:e-p270:32:32-p271:32:32-p272:64:64-i64:64-i128:128-f80:128-n8:16:32:64-S128"
target triple = "x86_64-pc-linux-gnu"

%struct._zend_array = type { %struct._zend_refcounted_h, %union.anon.0, i32, %union.anon.1, i32, i32, i32, i32, i64, ptr }
%struct._zend_refcounted_h = type { i32, %union.anon }
%union.anon = type { i32 }
%union.anon.0 = type { i32 }
%union.anon.1 = type { ptr }
%struct._zend_op_array = type { i8, [3 x i8], i32, ptr, ptr, ptr, i32, i32, ptr, ptr, ptr, ptr, i32, ptr, i32, i32, i32, ptr, ptr, ptr, ptr, ptr, i32, i32, ptr, ptr, ptr, i32, i32, i32, i32, ptr, ptr, [6 x ptr] }
%struct._zend_string = type { %struct._zend_refcounted_h, i64, i64, [1 x i8] }
%struct._zend_persistent_script = type { %struct._zend_script, i64, i32, i64, i8, i8, i8, i32, i32, ptr, ptr, ptr, i64, %struct.zend_persistent_script_dynamic_members }
%struct._zend_script = type { ptr, %struct._zend_op_array, %struct._zend_array, %struct._zend_array }
%struct.zend_persistent_script_dynamic_members = type { i64, i64, i32, i64 }

@.str.4 = private unnamed_addr constant [8 x i8] c"phar://\00", align 1
@.str.26 = private unnamed_addr constant [7 x i8] c".phar/\00", align 1

; Function Attrs: nounwind uwtable
define internal i32 @check_persistent_script_access(ptr noundef %0) #0 {
  %2 = alloca i32, align 4
  %3 = alloca ptr, align 8
  %4 = alloca ptr, align 8
  %5 = alloca ptr, align 8
  %6 = alloca i32, align 4
  %7 = alloca i8, align 1
  store ptr %0, ptr %3, align 8, !tbaa !136
  call void @llvm.lifetime.start.p0(i64 8, ptr %4) #19
  call void @llvm.lifetime.start.p0(i64 8, ptr %5) #19
  %8 = load ptr, ptr %3, align 8, !tbaa !136
  %9 = getelementptr inbounds nuw %struct._zend_persistent_script, ptr %8, i32 0, i32 0
  %10 = getelementptr inbounds nuw %struct._zend_script, ptr %9, i32 0, i32 0
  %11 = load ptr, ptr %10, align 8, !tbaa !153
  %12 = getelementptr inbounds nuw %struct._zend_string, ptr %11, i32 0, i32 2
  %13 = load i64, ptr %12, align 8, !tbaa !63
  %14 = icmp ult i64 %13, 13
  br i1 %14, label %24, label %15

15:                                               ; preds = %1
  %16 = load ptr, ptr %3, align 8, !tbaa !136
  %17 = getelementptr inbounds nuw %struct._zend_persistent_script, ptr %16, i32 0, i32 0
  %18 = getelementptr inbounds nuw %struct._zend_script, ptr %17, i32 0, i32 0
  %19 = load ptr, ptr %18, align 8, !tbaa !153
  %20 = getelementptr inbounds nuw %struct._zend_string, ptr %19, i32 0, i32 3
  %21 = getelementptr inbounds [1 x i8], ptr %20, i64 0, i64 0
  %22 = call i32 @memcmp(ptr noundef %21, ptr noundef @.str.4, i64 noundef 7) #22
  %23 = icmp ne i32 %22, 0
  br i1 %23, label %24, label %34

24:                                               ; preds = %15, %1
  %25 = load ptr, ptr %3, align 8, !tbaa !136
  %26 = getelementptr inbounds nuw %struct._zend_persistent_script, ptr %25, i32 0, i32 0
  %27 = getelementptr inbounds nuw %struct._zend_script, ptr %26, i32 0, i32 0
  %28 = load ptr, ptr %27, align 8, !tbaa !153
  %29 = getelementptr inbounds nuw %struct._zend_string, ptr %28, i32 0, i32 3
  %30 = getelementptr inbounds [1 x i8], ptr %29, i64 0, i64 0
  %31 = call i32 @access(ptr noundef %30, i32 noundef 4) #19
  %32 = icmp ne i32 %31, 0
  %33 = zext i1 %32 to i32
  store i32 %33, ptr %2, align 4
  store i32 1, ptr %6, align 4
  br label %60

34:                                               ; preds = %15
  %35 = load ptr, ptr %3, align 8, !tbaa !136
  %36 = getelementptr inbounds nuw %struct._zend_persistent_script, ptr %35, i32 0, i32 0
  %37 = getelementptr inbounds nuw %struct._zend_script, ptr %36, i32 0, i32 0
  %38 = load ptr, ptr %37, align 8, !tbaa !153
  %39 = getelementptr inbounds nuw %struct._zend_string, ptr %38, i32 0, i32 3
  %40 = getelementptr inbounds [1 x i8], ptr %39, i64 0, i64 0
  %41 = getelementptr inbounds nuw i8, ptr %40, i64 8
  %42 = getelementptr inbounds i8, ptr %41, i64 -1
  %43 = call noalias ptr @_estrdup(ptr noundef %42)
  store ptr %43, ptr %4, align 8, !tbaa !41
  %44 = load ptr, ptr %4, align 8, !tbaa !41
  %45 = call ptr @strstr(ptr noundef %44, ptr noundef @.str.26) #22
  store ptr %45, ptr %5, align 8, !tbaa !41
  %46 = icmp ne ptr %45, null
  br i1 %46, label %47, label %51

47:                                               ; preds = %34
  %48 = load ptr, ptr %5, align 8, !tbaa !41
  %49 = getelementptr inbounds nuw i8, ptr %48, i64 7
  %50 = getelementptr inbounds i8, ptr %49, i64 -2
  store i8 0, ptr %50, align 1, !tbaa !65
  br label %51

51:                                               ; preds = %47, %34
  call void @llvm.lifetime.start.p0(i64 1, ptr %7) #19
  %52 = load ptr, ptr %4, align 8, !tbaa !41
  %53 = call i32 @access(ptr noundef %52, i32 noundef 4) #19
  %54 = icmp ne i32 %53, 0
  %55 = zext i1 %54 to i8
  store i8 %55, ptr %7, align 1, !tbaa !53
  %56 = load ptr, ptr %4, align 8, !tbaa !41
  call void @_efree(ptr noundef %56)
  %57 = load i8, ptr %7, align 1, !tbaa !53, !range !38, !noundef !39
  %58 = trunc i8 %57 to i1
  %59 = zext i1 %58 to i32
  store i32 %59, ptr %2, align 4
  store i32 1, ptr %6, align 4
  call void @llvm.lifetime.end.p0(i64 1, ptr %7) #19
  br label %60

60:                                               ; preds = %51, %24
  call void @llvm.lifetime.end.p0(i64 8, ptr %5) #19
  call void @llvm.lifetime.end.p0(i64 8, ptr %4) #19
  %61 = load i32, ptr %2, align 4
  ret i32 %61
}