; Function Attrs: nounwind uwtable
define internal fastcc range(i32 0, 2) i32 @check_persistent_script_access(ptr %.0.val) unnamed_addr #0 {
  %1 = getelementptr inbounds nuw i8, ptr %.0.val, i64 16
  %2 = load i64, ptr %1, align 8, !tbaa !60
  %3 = icmp ult i64 %2, 13
  br i1 %3, label %6, label %4

4:                                                ; preds = %0
  %5 = getelementptr inbounds nuw i8, ptr %.0.val, i64 24
  %bcmp = tail call i32 @bcmp(ptr noundef nonnull dereferenceable(7) %5, ptr noundef nonnull dereferenceable(7) @.str.4, i64 7)
  %.not = icmp eq i32 %bcmp, 0
  br i1 %.not, label %9, label %6

6:                                                ; preds = %4, %0
  %7 = getelementptr inbounds nuw i8, ptr %.0.val, i64 24
  %8 = tail call i32 @access(ptr noundef nonnull %7, i32 noundef 4) #26
  br label %17

9:                                                ; preds = %4
  %10 = getelementptr inbounds nuw i8, ptr %.0.val, i64 31
  %11 = tail call noalias ptr @_estrdup(ptr noundef nonnull %10) #26
  %12 = tail call ptr @strstr(ptr noundef nonnull dereferenceable(1) %11, ptr noundef nonnull dereferenceable(1) @.str.26) #29
  %.not10 = icmp eq ptr %12, null
  br i1 %.not10, label %15, label %13

13:                                               ; preds = %9
  %14 = getelementptr inbounds nuw i8, ptr %12, i64 5
  store i8 0, ptr %14, align 1, !tbaa !64
  br label %15

15:                                               ; preds = %13, %9
  %16 = tail call i32 @access(ptr noundef nonnull %11, i32 noundef 4) #26
  tail call void @_efree(ptr noundef nonnull %11) #26
  br label %17

17:                                               ; preds = %15, %6
  %.0.in.in = phi i32 [ %8, %6 ], [ %16, %15 ]
  %.0.in = icmp ne i32 %.0.in.in, 0
  %.0 = zext i1 %.0.in to i32
  ret i32 %.0
}